; ModuleID = '6/1109.c'
source_filename = "6/1109.c"
target datalayout = "e-m:e-p270:32:32-p271:32:32-p272:64:64-i64:64-f80:128-n8:16:32:64-S128"
target triple = "x86_64-pc-linux-gnu"

@.str = private unnamed_addr constant [3 x i8] c"%d\00", align 1
@.str.1 = private unnamed_addr constant [5 x i8] c"%d%d\00", align 1
@.str.2 = private unnamed_addr constant [4 x i8] c"%d\0A\00", align 1

; Function Attrs: noinline nounwind uwtable
define dso_local i32 @main() #0 {
  %1 = alloca i32, align 4
  %2 = alloca i32, align 4
  %3 = alloca i32, align 4
  %4 = alloca i32, align 4
  %5 = alloca i32, align 4
  %6 = alloca i32, align 4
  %7 = alloca [101 x [101 x i32]], align 16
  %8 = alloca i32, align 4
  %9 = alloca i32, align 4
  store i32 0, i32* %1, align 4
  store i32 0, i32* %3, align 4
  %10 = call i32 (i8*, ...) @__isoc99_scanf(i8* getelementptr inbounds ([3 x i8], [3 x i8]* @.str, i64 0, i64 0), i32* %2)
  store i32 1, i32* %4, align 4
  br label %11

11:                                               ; preds = %93, %0
  %12 = load i32, i32* %4, align 4
  %13 = load i32, i32* %2, align 4
  %14 = icmp sle i32 %12, %13
  br i1 %14, label %15, label %96

15:                                               ; preds = %11
  store i32 0, i32* %3, align 4
  %16 = call i32 (i8*, ...) @__isoc99_scanf(i8* getelementptr inbounds ([5 x i8], [5 x i8]* @.str.1, i64 0, i64 0), i32* %8, i32* %9)
  store i32 1, i32* %5, align 4
  br label %17

17:                                               ; preds = %38, %15
  %18 = load i32, i32* %5, align 4
  %19 = load i32, i32* %8, align 4
  %20 = icmp sle i32 %18, %19
  br i1 %20, label %21, label %41

21:                                               ; preds = %17
  store i32 1, i32* %6, align 4
  br label %22

22:                                               ; preds = %34, %21
  %23 = load i32, i32* %6, align 4
  %24 = load i32, i32* %9, align 4
  %25 = icmp sle i32 %23, %24
  br i1 %25, label %26, label %37

26:                                               ; preds = %22
  %27 = load i32, i32* %5, align 4
  %28 = sext i32 %27 to i64
  %29 = getelementptr inbounds [101 x [101 x i32]], [101 x [101 x i32]]* %7, i64 0, i64 %28
  %30 = load i32, i32* %6, align 4
  %31 = sext i32 %30 to i64
  %32 = getelementptr inbounds [101 x i32], [101 x i32]* %29, i64 0, i64 %31
  %33 = call i32 (i8*, ...) @__isoc99_scanf(i8* getelementptr inbounds ([3 x i8], [3 x i8]* @.str, i64 0, i64 0), i32* %32)
  br label %34

34:                                               ; preds = %26
  %35 = load i32, i32* %6, align 4
  %36 = add nsw i32 %35, 1
  store i32 %36, i32* %6, align 4
  br label %22

37:                                               ; preds = %22
  br label %38

38:                                               ; preds = %37
  %39 = load i32, i32* %5, align 4
  %40 = add nsw i32 %39, 1
  store i32 %40, i32* %5, align 4
  br label %17

41:                                               ; preds = %17
  store i32 1, i32* %5, align 4
  br label %42

42:                                               ; preds = %62, %41
  %43 = load i32, i32* %5, align 4
  %44 = load i32, i32* %9, align 4
  %45 = icmp sle i32 %43, %44
  br i1 %45, label %46, label %65

46:                                               ; preds = %42
  %47 = load i32, i32* %3, align 4
  %48 = getelementptr inbounds [101 x [101 x i32]], [101 x [101 x i32]]* %7, i64 0, i64 1
  %49 = load i32, i32* %5, align 4
  %50 = sext i32 %49 to i64
  %51 = getelementptr inbounds [101 x i32], [101 x i32]* %48, i64 0, i64 %50
  %52 = load i32, i32* %51, align 4
  %53 = add nsw i32 %47, %52
  %54 = load i32, i32* %8, align 4
  %55 = sext i32 %54 to i64
  %56 = getelementptr inbounds [101 x [101 x i32]], [101 x [101 x i32]]* %7, i64 0, i64 %55
  %57 = load i32, i32* %5, align 4
  %58 = sext i32 %57 to i64
  %59 = getelementptr inbounds [101 x i32], [101 x i32]* %56, i64 0, i64 %58
  %60 = load i32, i32* %59, align 4
  %61 = add nsw i32 %53, %60
  store i32 %61, i32* %3, align 4
  br label %62

62:                                               ; preds = %46
  %63 = load i32, i32* %5, align 4
  %64 = add nsw i32 %63, 1
  store i32 %64, i32* %5, align 4
  br label %42

65:                                               ; preds = %42
  store i32 2, i32* %5, align 4
  br label %66

66:                                               ; preds = %87, %65
  %67 = load i32, i32* %5, align 4
  %68 = load i32, i32* %8, align 4
  %69 = sub nsw i32 %68, 1
  %70 = icmp sle i32 %67, %69
  br i1 %70, label %71, label %90

71:                                               ; preds = %66
  %72 = load i32, i32* %3, align 4
  %73 = load i32, i32* %5, align 4
  %74 = sext i32 %73 to i64
  %75 = getelementptr inbounds [101 x [101 x i32]], [101 x [101 x i32]]* %7, i64 0, i64 %74
  %76 = getelementptr inbounds [101 x i32], [101 x i32]* %75, i64 0, i64 1
  %77 = load i32, i32* %76, align 4
  %78 = add nsw i32 %72, %77
  %79 = load i32, i32* %5, align 4
  %80 = sext i32 %79 to i64
  %81 = getelementptr inbounds [101 x [101 x i32]], [101 x [101 x i32]]* %7, i64 0, i64 %80
  %82 = load i32, i32* %9, align 4
  %83 = sext i32 %82 to i64
  %84 = getelementptr inbounds [101 x i32], [101 x i32]* %81, i64 0, i64 %83
  %85 = load i32, i32* %84, align 4
  %86 = add nsw i32 %78, %85
  store i32 %86, i32* %3, align 4
  br label %87

87:                                               ; preds = %71
  %88 = load i32, i32* %5, align 4
  %89 = add nsw i32 %88, 1
  store i32 %89, i32* %5, align 4
  br label %66

90:                                               ; preds = %66
  %91 = load i32, i32* %3, align 4
  %92 = call i32 (i8*, ...) @printf(i8* getelementptr inbounds ([4 x i8], [4 x i8]* @.str.2, i64 0, i64 0), i32 %91)
  br label %93

93:                                               ; preds = %90
  %94 = load i32, i32* %4, align 4
  %95 = add nsw i32 %94, 1
  store i32 %95, i32* %4, align 4
  br label %11

96:                                               ; preds = %11
  ret i32 0
}

declare dso_local i32 @__isoc99_scanf(i8*, ...) #1

declare dso_local i32 @printf(i8*, ...) #1


!llvm.module.flags = !{!0}
!llvm.ident = !{!1}

!0 = !{i32 1, !"wchar_size", i32 4}
!1 = !{!"clang version 10.0.0-4ubuntu1 "}
